; Function Attrs: mustprogress nounwind uwtable
define dso_local i64 @_ZNK5clang4ento9MemRegion11sourceRangeEv(ptr noundef nonnull align 8 dereferenceable(48) %0) local_unnamed_addr #3 align 2 {
  %2 = getelementptr inbounds nuw i8, ptr %0, i64 16
  %3 = load i32, ptr %2, align 8
  %.not = icmp eq i32 %3, 20
  br i1 %.not, label %4, label %.preheader

4:                                                ; preds = %1
  %5 = load ptr, ptr %0, align 8
  %6 = getelementptr inbounds i8, ptr %5, i64 112
  %7 = load ptr, ptr %6, align 8
  %8 = tail call noundef nonnull ptr %7(ptr noundef nonnull align 8 dereferenceable(64) %0) #20
  %9 = load ptr, ptr %8, align 8
  %10 = getelementptr inbounds i8, ptr %9, i64 16
  %11 = load ptr, ptr %10, align 8
  %12 = tail call i64 %11(ptr noundef nonnull align 8 dereferenceable(80) %8) #21
  %.sroa.5.0.extract.shift = and i64 %12, -4294967296
  br label %27

.preheader:                                       ; preds = %1, %14
  %13 = phi i32 [ %.pre, %14 ], [ %3, %1 ]
  %.0.i = phi ptr [ %16, %14 ], [ %0, %1 ]
  switch i32 %13, label %_ZNK5clang4ento9MemRegion13getBaseRegionEv.exit [
    i32 24, label %14
    i32 20, label %14
    i32 21, label %14
    i32 15, label %14
    i32 16, label %14
  ]

14:                                               ; preds = %.preheader, %.preheader, %.preheader, %.preheader, %.preheader
  %15 = getelementptr inbounds nuw i8, ptr %.0.i, i64 48
  %16 = load ptr, ptr %15, align 8
  %.phi.trans.insert = getelementptr inbounds nuw i8, ptr %16, i64 16
  %.pre = load i32, ptr %.phi.trans.insert, align 8
  br label %.preheader, !llvm.loop !72

_ZNK5clang4ento9MemRegion13getBaseRegionEv.exit:  ; preds = %.preheader
  %17 = and i32 %13, -2
  %.not12 = icmp eq i32 %17, 22
  br i1 %.not12, label %18, label %27

18:                                               ; preds = %_ZNK5clang4ento9MemRegion13getBaseRegionEv.exit
  %19 = load ptr, ptr %.0.i, align 8
  %20 = getelementptr inbounds i8, ptr %19, i64 112
  %21 = load ptr, ptr %20, align 8
  %22 = tail call noundef ptr %21(ptr noundef nonnull align 8 dereferenceable(56) %.0.i) #20
  %23 = load ptr, ptr %22, align 8
  %24 = getelementptr inbounds i8, ptr %23, i64 16
  %25 = load ptr, ptr %24, align 8
  %26 = tail call i64 %25(ptr noundef nonnull align 8 dereferenceable(100) %22) #21
  %.sroa.5.0.extract.shift9 = and i64 %26, -4294967296
  br label %27

27:                                               ; preds = %_ZNK5clang4ento9MemRegion13getBaseRegionEv.exit, %18, %4
  %.sroa.5.0 = phi i64 [ %.sroa.5.0.extract.shift9, %18 ], [ %.sroa.5.0.extract.shift, %4 ], [ 0, %_ZNK5clang4ento9MemRegion13getBaseRegionEv.exit ]
  %.sroa.0.0 = phi i64 [ %26, %18 ], [ %12, %4 ], [ 0, %_ZNK5clang4ento9MemRegion13getBaseRegionEv.exit ]
  %.sroa.0.0.insert.ext = and i64 %.sroa.0.0, 4294967295
  %.sroa.0.0.insert.insert = or disjoint i64 %.sroa.0.0.insert.ext, %.sroa.5.0
  ret i64 %.sroa.0.0.insert.insert
}